; Function Attrs: nounwind uwtable
define ptr @l_Lean_PrettyPrinter_Formatter_getStack___rarg(ptr noundef %0, ptr readnone captures(none) %1, ptr readnone captures(none) %2, ptr noundef %3) local_unnamed_addr #0 {
  %5 = tail call ptr @lean_st_ref_get(ptr noundef %0, ptr noundef %3) #6
  %.val = load i32, ptr %5, align 4, !tbaa !8
  %6 = icmp eq i32 %.val, 1
  %7 = getelementptr inbounds nuw i8, ptr %5, i64 8
  %8 = load ptr, ptr %7, align 8, !tbaa !4
  br i1 %6, label %9, label %29

9:                                                ; preds = %4
  %10 = getelementptr inbounds nuw i8, ptr %8, i64 24
  %11 = load ptr, ptr %10, align 8, !tbaa !4
  %12 = ptrtoint ptr %11 to i64
  %13 = and i64 %12, 1
  %.not46 = icmp eq i64 %13, 0
  br i1 %.not46, label %14, label %lean_inc.exit26

14:                                               ; preds = %9
  %.val.i = load i32, ptr %11, align 4, !tbaa !8
  %15 = icmp sgt i32 %.val.i, 0
  br i1 %15, label %16, label %18, !prof !11

16:                                               ; preds = %14
  %17 = add nuw i32 %.val.i, 1
  store i32 %17, ptr %11, align 4, !tbaa !8
  br label %lean_inc.exit26

18:                                               ; preds = %14
  %.not.i33 = icmp eq i32 %.val.i, 0
  br i1 %.not.i33, label %lean_inc.exit26, label %19

19:                                               ; preds = %18
  tail call void @lean_inc_ref_cold(ptr noundef nonnull %11) #6
  br label %lean_inc.exit26

lean_inc.exit26:                                  ; preds = %19, %18, %16, %9
  %20 = ptrtoint ptr %8 to i64
  %21 = and i64 %20, 1
  %.not47 = icmp eq i64 %21, 0
  br i1 %.not47, label %22, label %lean_dec.exit28

22:                                               ; preds = %lean_inc.exit26
  %23 = load i32, ptr %8, align 4, !tbaa !8
  %24 = icmp sgt i32 %23, 1
  br i1 %24, label %25, label %27, !prof !11

25:                                               ; preds = %22
  %26 = add nsw i32 %23, -1
  store i32 %26, ptr %8, align 4, !tbaa !8
  br label %lean_dec.exit28

27:                                               ; preds = %22
  %.not.i = icmp eq i32 %23, 0
  br i1 %.not.i, label %lean_dec.exit28, label %28

28:                                               ; preds = %27
  tail call void @lean_dec_ref_cold(ptr noundef nonnull %8) #6
  br label %lean_dec.exit28

lean_dec.exit28:                                  ; preds = %28, %27, %25, %lean_inc.exit26
  store ptr %11, ptr %7, align 8, !tbaa !4
  br label %80

29:                                               ; preds = %4
  %30 = getelementptr inbounds nuw i8, ptr %5, i64 16
  %31 = load ptr, ptr %30, align 8, !tbaa !4
  %32 = ptrtoint ptr %31 to i64
  %33 = and i64 %32, 1
  %.not = icmp eq i64 %33, 0
  br i1 %.not, label %34, label %lean_inc.exit25

34:                                               ; preds = %29
  %.val.i34 = load i32, ptr %31, align 4, !tbaa !8
  %35 = icmp sgt i32 %.val.i34, 0
  br i1 %35, label %36, label %38, !prof !11

36:                                               ; preds = %34
  %37 = add nuw i32 %.val.i34, 1
  store i32 %37, ptr %31, align 4, !tbaa !8
  br label %lean_inc.exit25

38:                                               ; preds = %34
  %.not.i35 = icmp eq i32 %.val.i34, 0
  br i1 %.not.i35, label %lean_inc.exit25, label %39

39:                                               ; preds = %38
  tail call void @lean_inc_ref_cold(ptr noundef nonnull %31) #6
  br label %lean_inc.exit25

lean_inc.exit25:                                  ; preds = %39, %38, %36, %29
  %40 = ptrtoint ptr %8 to i64
  %41 = and i64 %40, 1
  %.not43 = icmp eq i64 %41, 0
  br i1 %.not43, label %42, label %lean_inc.exit24

42:                                               ; preds = %lean_inc.exit25
  %.val.i37 = load i32, ptr %8, align 4, !tbaa !8
  %43 = icmp sgt i32 %.val.i37, 0
  br i1 %43, label %44, label %46, !prof !11

44:                                               ; preds = %42
  %45 = add nuw i32 %.val.i37, 1
  store i32 %45, ptr %8, align 4, !tbaa !8
  br label %lean_inc.exit24

46:                                               ; preds = %42
  %.not.i38 = icmp eq i32 %.val.i37, 0
  br i1 %.not.i38, label %lean_inc.exit24, label %47

47:                                               ; preds = %46
  tail call void @lean_inc_ref_cold(ptr noundef nonnull %8) #6
  br label %lean_inc.exit24

lean_inc.exit24:                                  ; preds = %47, %46, %44, %lean_inc.exit25
  %48 = ptrtoint ptr %5 to i64
  %49 = and i64 %48, 1
  %.not44 = icmp eq i64 %49, 0
  br i1 %.not44, label %50, label %lean_dec.exit27

50:                                               ; preds = %lean_inc.exit24
  %51 = load i32, ptr %5, align 4, !tbaa !8
  %52 = icmp sgt i32 %51, 1
  br i1 %52, label %53, label %55, !prof !11

53:                                               ; preds = %50
  %54 = add nsw i32 %51, -1
  store i32 %54, ptr %5, align 4, !tbaa !8
  br label %lean_dec.exit27

55:                                               ; preds = %50
  %.not.i29 = icmp eq i32 %51, 0
  br i1 %.not.i29, label %lean_dec.exit27, label %56

56:                                               ; preds = %55
  tail call void @lean_dec_ref_cold(ptr noundef nonnull %5) #6
  br label %lean_dec.exit27

lean_dec.exit27:                                  ; preds = %56, %55, %53, %lean_inc.exit24
  %57 = getelementptr inbounds nuw i8, ptr %8, i64 24
  %58 = load ptr, ptr %57, align 8, !tbaa !4
  %59 = ptrtoint ptr %58 to i64
  %60 = and i64 %59, 1
  %.not45 = icmp eq i64 %60, 0
  br i1 %.not45, label %61, label %lean_inc.exit

61:                                               ; preds = %lean_dec.exit27
  %.val.i40 = load i32, ptr %58, align 4, !tbaa !8
  %62 = icmp sgt i32 %.val.i40, 0
  br i1 %62, label %63, label %65, !prof !11

63:                                               ; preds = %61
  %64 = add nuw i32 %.val.i40, 1
  store i32 %64, ptr %58, align 4, !tbaa !8
  br label %lean_inc.exit

65:                                               ; preds = %61
  %.not.i41 = icmp eq i32 %.val.i40, 0
  br i1 %.not.i41, label %lean_inc.exit, label %66

66:                                               ; preds = %65
  tail call void @lean_inc_ref_cold(ptr noundef nonnull %58) #6
  br label %lean_inc.exit

lean_inc.exit:                                    ; preds = %66, %65, %63, %lean_dec.exit27
  br i1 %.not43, label %67, label %lean_dec.exit

67:                                               ; preds = %lean_inc.exit
  %68 = load i32, ptr %8, align 4, !tbaa !8
  %69 = icmp sgt i32 %68, 1
  br i1 %69, label %70, label %72, !prof !11

70:                                               ; preds = %67
  %71 = add nsw i32 %68, -1
  store i32 %71, ptr %8, align 4, !tbaa !8
  br label %lean_dec.exit

72:                                               ; preds = %67
  %.not.i31 = icmp eq i32 %68, 0
  br i1 %.not.i31, label %lean_dec.exit, label %73

73:                                               ; preds = %72
  tail call void @lean_dec_ref_cold(ptr noundef nonnull %8) #6
  br label %lean_dec.exit

lean_dec.exit:                                    ; preds = %73, %72, %70, %lean_inc.exit
  tail call void @lean_inc_heartbeat() #6
  %74 = tail call noalias ptr @mi_malloc_small(i64 noundef 24) #6
  %75 = icmp eq ptr %74, null
  br i1 %75, label %76, label %lean_alloc_ctor.exit

76:                                               ; preds = %lean_dec.exit
  tail call void @lean_internal_panic_out_of_memory() #7
  unreachable

lean_alloc_ctor.exit:                             ; preds = %lean_dec.exit
  %77 = getelementptr inbounds nuw i8, ptr %74, i64 4
  store i32 1, ptr %74, align 4, !tbaa !8
  store i32 131096, ptr %77, align 4
  %78 = getelementptr inbounds nuw i8, ptr %74, i64 8
  store ptr %58, ptr %78, align 8, !tbaa !4
  %79 = getelementptr inbounds nuw i8, ptr %74, i64 16
  store ptr %31, ptr %79, align 8, !tbaa !4
  br label %80

80:                                               ; preds = %lean_alloc_ctor.exit, %lean_dec.exit28
  %.0 = phi ptr [ %5, %lean_dec.exit28 ], [ %74, %lean_alloc_ctor.exit ]
  ret ptr %.0
}